target datalayout = "e-m:e-p270:32:32-p271:32:32-p272:64:64-i64:64-i128:128-f80:128-n8:16:32:64-S128"
target triple = "x86_64-pc-linux-gnu"

%"struct.ozz::animation::IKTwoBoneJob" = type { <4 x float>, <4 x float>, <4 x float>, float, float, float, ptr, ptr, ptr, ptr, ptr, ptr }

; Function Attrs: mustprogress uwtable
define dso_local noundef zeroext i1 @_ZNK3ozz9animation12IKTwoBoneJob8ValidateEv(ptr noundef nonnull align 16 dereferenceable(112) %0) #4 align 2 {
  %2 = alloca <4 x float>, align 16
  %3 = alloca <4 x float>, align 16
  %4 = alloca <4 x float>, align 16
  %5 = alloca <4 x float>, align 16
  %6 = alloca <4 x float>, align 16
  %7 = alloca <4 x float>, align 16
  %8 = alloca <4 x float>, align 16
  %9 = alloca <4 x float>, align 16
  %10 = alloca <4 x float>, align 16
  %11 = alloca <4 x float>, align 16
  %12 = alloca <4 x float>, align 16
  %13 = alloca <4 x float>, align 16
  %14 = alloca <4 x float>, align 16
  %15 = alloca <4 x float>, align 16
  %16 = alloca <4 x float>, align 16
  %17 = alloca float, align 4
  %18 = alloca <4 x float>, align 16
  %19 = alloca float, align 4
  %20 = alloca <4 x float>, align 16
  %21 = alloca <4 x float>, align 16
  %22 = alloca <2 x i64>, align 16
  %23 = alloca <4 x float>, align 16
  %24 = alloca <4 x float>, align 16
  %25 = alloca <4 x float>, align 16
  %26 = alloca <4 x float>, align 16
  %27 = alloca <4 x float>, align 16
  %28 = alloca <4 x float>, align 16
  %29 = alloca <4 x float>, align 16
  %30 = alloca <2 x i64>, align 16
  %31 = alloca ptr, align 8
  %32 = alloca i8, align 1
  store ptr %0, ptr %31, align 8
  %33 = load ptr, ptr %31, align 8
  store i8 1, ptr %32, align 1
  %34 = getelementptr inbounds %"struct.ozz::animation::IKTwoBoneJob", ptr %33, i32 0, i32 6
  %35 = load ptr, ptr %34, align 16
  %36 = icmp ne ptr %35, null
  br i1 %36, label %37, label %45

37:                                               ; preds = %1
  %38 = getelementptr inbounds %"struct.ozz::animation::IKTwoBoneJob", ptr %33, i32 0, i32 7
  %39 = load ptr, ptr %38, align 8
  %40 = icmp ne ptr %39, null
  br i1 %40, label %41, label %45

41:                                               ; preds = %37
  %42 = getelementptr inbounds %"struct.ozz::animation::IKTwoBoneJob", ptr %33, i32 0, i32 8
  %43 = load ptr, ptr %42, align 16
  %44 = icmp ne ptr %43, null
  br label %45

45:                                               ; preds = %41, %37, %1
  %46 = phi i1 [ false, %37 ], [ false, %1 ], [ %44, %41 ]
  %47 = zext i1 %46 to i32
  %48 = load i8, ptr %32, align 1
  %49 = trunc i8 %48 to i1
  %50 = zext i1 %49 to i32
  %51 = and i32 %50, %47
  %52 = icmp ne i32 %51, 0
  %53 = zext i1 %52 to i8
  store i8 %53, ptr %32, align 1
  %54 = getelementptr inbounds %"struct.ozz::animation::IKTwoBoneJob", ptr %33, i32 0, i32 9
  %55 = load ptr, ptr %54, align 8
  %56 = icmp ne ptr %55, null
  br i1 %56, label %57, label %61

57:                                               ; preds = %45
  %58 = getelementptr inbounds %"struct.ozz::animation::IKTwoBoneJob", ptr %33, i32 0, i32 10
  %59 = load ptr, ptr %58, align 16
  %60 = icmp ne ptr %59, null
  br label %61

61:                                               ; preds = %57, %45
  %62 = phi i1 [ false, %45 ], [ %60, %57 ]
  %63 = zext i1 %62 to i32
  %64 = load i8, ptr %32, align 1
  %65 = trunc i8 %64 to i1
  %66 = zext i1 %65 to i32
  %67 = and i32 %66, %63
  %68 = icmp ne i32 %67, 0
  %69 = zext i1 %68 to i8
  store i8 %69, ptr %32, align 1
  %70 = getelementptr inbounds %"struct.ozz::animation::IKTwoBoneJob", ptr %33, i32 0, i32 1
  %71 = load <4 x float>, ptr %70, align 16
  store <4 x float> %71, ptr %24, align 16
  store float 0x3FF0083120000000, ptr %17, align 4
  %72 = load float, ptr %17, align 4
  %73 = insertelement <4 x float> poison, float %72, i32 0
  %74 = insertelement <4 x float> %73, float 0.000000e+00, i32 1
  %75 = insertelement <4 x float> %74, float 0.000000e+00, i32 2
  %76 = insertelement <4 x float> %75, float 0.000000e+00, i32 3
  store <4 x float> %76, ptr %18, align 16
  %77 = load <4 x float>, ptr %18, align 16
  store <4 x float> %77, ptr %25, align 16
  store float 0x3FEFEF9DC0000000, ptr %19, align 4
  %78 = load float, ptr %19, align 4
  %79 = insertelement <4 x float> poison, float %78, i32 0
  %80 = insertelement <4 x float> %79, float 0.000000e+00, i32 1
  %81 = insertelement <4 x float> %80, float 0.000000e+00, i32 2
  %82 = insertelement <4 x float> %81, float 0.000000e+00, i32 3
  store <4 x float> %82, ptr %20, align 16
  %83 = load <4 x float>, ptr %20, align 16
  store <4 x float> %83, ptr %26, align 16
  %84 = load <4 x float>, ptr %24, align 16
  %85 = load <4 x float>, ptr %24, align 16
  store <4 x float> %84, ptr %15, align 16
  store <4 x float> %85, ptr %16, align 16
  %86 = load <4 x float>, ptr %15, align 16
  %87 = load <4 x float>, ptr %16, align 16
  %88 = fmul <4 x float> %86, %87
  store <4 x float> %88, ptr %28, align 16
  %89 = load <4 x float>, ptr %28, align 16
  %90 = load <4 x float>, ptr %28, align 16
  %91 = load <4 x float>, ptr %28, align 16
  %92 = shufflevector <4 x float> %90, <4 x float> %91, <4 x i32> <i32 2, i32 2, i32 6, i32 6>
  store <4 x float> %89, ptr %11, align 16
  store <4 x float> %92, ptr %12, align 16
  %93 = load <4 x float>, ptr %12, align 16
  %94 = extractelement <4 x float> %93, i32 0
  %95 = load <4 x float>, ptr %11, align 16
  %96 = extractelement <4 x float> %95, i32 0
  %97 = fadd float %96, %94
  %98 = load <4 x float>, ptr %11, align 16
  %99 = insertelement <4 x float> %98, float %97, i32 0
  store <4 x float> %99, ptr %11, align 16
  %100 = load <4 x float>, ptr %11, align 16
  %101 = load <4 x float>, ptr %28, align 16
  %102 = load <4 x float>, ptr %28, align 16
  %103 = shufflevector <4 x float> %101, <4 x float> %102, <4 x i32> <i32 1, i32 1, i32 5, i32 5>
  store <4 x float> %100, ptr %13, align 16
  store <4 x float> %103, ptr %14, align 16
  %104 = load <4 x float>, ptr %14, align 16
  %105 = extractelement <4 x float> %104, i32 0
  %106 = load <4 x float>, ptr %13, align 16
  %107 = extractelement <4 x float> %106, i32 0
  %108 = fadd float %107, %105
  %109 = load <4 x float>, ptr %13, align 16
  %110 = insertelement <4 x float> %109, float %108, i32 0
  store <4 x float> %110, ptr %13, align 16
  %111 = load <4 x float>, ptr %13, align 16
  store <4 x float> %111, ptr %27, align 16
  store <4 x float> zeroinitializer, ptr %23, align 16
  %112 = load <4 x float>, ptr %23, align 16
  %113 = load <4 x float>, ptr %27, align 16
  store <4 x float> %112, ptr %9, align 16
  store <4 x float> %113, ptr %10, align 16
  %114 = load <4 x float>, ptr %10, align 16
  %115 = extractelement <4 x float> %114, i32 0
  %116 = load <4 x float>, ptr %9, align 16
  %117 = insertelement <4 x float> %116, float %115, i32 0
  store <4 x float> %117, ptr %9, align 16
  %118 = load <4 x float>, ptr %9, align 16
  store <4 x float> %118, ptr %29, align 16
  %119 = load <4 x float>, ptr %29, align 16
  %120 = load <4 x float>, ptr %25, align 16
  store <4 x float> %119, ptr %4, align 16
  store <4 x float> %120, ptr %5, align 16
  %121 = load <4 x float>, ptr %4, align 16
  %122 = load <4 x float>, ptr %5, align 16
  %123 = call noundef <4 x float> @llvm.x86.sse.cmp.ss(<4 x float> %121, <4 x float> %122, i8 1)
  %124 = load <4 x float>, ptr %29, align 16
  %125 = load <4 x float>, ptr %26, align 16
  store <4 x float> %124, ptr %2, align 16
  store <4 x float> %125, ptr %3, align 16
  %126 = load <4 x float>, ptr %2, align 16
  %127 = load <4 x float>, ptr %3, align 16
  %128 = load <4 x float>, ptr %2, align 16
  %129 = call <4 x float> @llvm.x86.sse.cmp.ss(<4 x float> %127, <4 x float> %128, i8 1)
  %130 = shufflevector <4 x float> %126, <4 x float> %129, <4 x i32> <i32 4, i32 1, i32 2, i32 3>
  store <4 x float> %123, ptr %6, align 16
  store <4 x float> %130, ptr %7, align 16
  %131 = load <4 x float>, ptr %6, align 16
  %132 = bitcast <4 x float> %131 to <4 x i32>
  %133 = load <4 x float>, ptr %7, align 16
  %134 = bitcast <4 x float> %133 to <4 x i32>
  %135 = and <4 x i32> %132, %134
  %136 = bitcast <4 x i32> %135 to <4 x float>
  store <4 x float> %136, ptr %8, align 16
  %137 = load <4 x float>, ptr %8, align 16
  %138 = bitcast <4 x float> %137 to <2 x i64>
  store <2 x i64> %138, ptr %30, align 16
  %139 = load <2 x i64>, ptr %30, align 16
  store <2 x i64> %139, ptr %22, align 16
  %140 = load <2 x i64>, ptr %22, align 16
  %141 = bitcast <2 x i64> %140 to <4 x float>
  store <4 x float> %141, ptr %21, align 16
  %142 = load <4 x float>, ptr %21, align 16
  %143 = call noundef i32 @llvm.x86.sse.movmsk.ps(<4 x float> %142)
  %144 = and i32 %143, 1
  %145 = icmp eq i32 %144, 1
  %146 = zext i1 %145 to i32
  %147 = load i8, ptr %32, align 1
  %148 = trunc i8 %147 to i1
  %149 = zext i1 %148 to i32
  %150 = and i32 %149, %146
  %151 = icmp ne i32 %150, 0
  %152 = zext i1 %151 to i8
  store i8 %152, ptr %32, align 1
  %153 = load i8, ptr %32, align 1
  %154 = trunc i8 %153 to i1
  ret i1 %154
}