; Function Attrs: mustprogress nofree norecurse nosync nounwind willreturn memory(argmem: read) uwtable
define dso_local noundef zeroext i1 @_ZNK3ozz9animation12IKTwoBoneJob8ValidateEv(ptr nocapture noundef nonnull readonly align 16 dereferenceable(112) %0) local_unnamed_addr #4 align 2 {
  %2 = getelementptr inbounds i8, ptr %0, i64 64
  %3 = load <2 x ptr>, ptr %2, align 16
  %4 = getelementptr inbounds i8, ptr %0, i64 80
  %5 = load ptr, ptr %4, align 16
  %.fr52 = freeze ptr %5
  %6 = icmp ne ptr %.fr52, null
  %7 = getelementptr inbounds i8, ptr %0, i64 88
  %8 = load <2 x ptr>, ptr %7, align 8
  %9 = shufflevector <2 x ptr> %8, <2 x ptr> %3, <4 x i32> <i32 1, i32 0, i32 3, i32 2>
  %.fr = freeze <4 x ptr> %9
  %10 = getelementptr inbounds i8, ptr %0, i64 16
  %11 = load <4 x float>, ptr %10, align 16
  %12 = fmul <4 x float> %11, %11
  %shift = shufflevector <4 x float> %12, <4 x float> poison, <4 x i32> <i32 2, i32 poison, i32 poison, i32 poison>
  %13 = fadd <4 x float> %12, %shift
  %shift50 = shufflevector <4 x float> %12, <4 x float> poison, <4 x i32> <i32 1, i32 poison, i32 poison, i32 poison>
  %14 = fadd <4 x float> %shift50, %13
  %15 = shufflevector <4 x float> %14, <4 x float> <float poison, float 0.000000e+00, float 0.000000e+00, float 0.000000e+00>, <4 x i32> <i32 0, i32 5, i32 6, i32 7>
  %16 = tail call noundef <4 x float> @llvm.x86.sse.cmp.ss(<4 x float> %15, <4 x float> <float 0x3FF0083120000000, float poison, float poison, float poison>, i8 1)
  %17 = tail call <4 x float> @llvm.x86.sse.cmp.ss(<4 x float> <float 0x3FEFEF9DC0000000, float poison, float poison, float poison>, <4 x float> %15, i8 1)
  %18 = shufflevector <4 x float> %17, <4 x float> <float poison, float 0.000000e+00, float 0.000000e+00, float 0.000000e+00>, <4 x i32> <i32 0, i32 5, i32 6, i32 7>
  %19 = bitcast <4 x float> %16 to <4 x i32>
  %20 = bitcast <4 x float> %18 to <4 x i32>
  %21 = and <4 x i32> %20, %19
  %22 = icmp slt <4 x i32> %21, zeroinitializer
  %23 = bitcast <4 x i1> %22 to i4
  %24 = and i4 %23, 1
  %25 = icmp ne i4 %24, 0
  %26 = icmp eq <4 x ptr> %.fr, zeroinitializer
  %27 = bitcast <4 x i1> %26 to i4
  %28 = icmp eq i4 %27, 0
  %op.rdx = and i1 %28, %6
  %op.rdx49 = select i1 %op.rdx, i1 %25, i1 false
  ret i1 %op.rdx49
}